; Function Attrs: mustprogress nofree nounwind uwtable
define hidden void @_ZN19OpenColorIO_v2_5dev8Platform8UnsetenvEPKc(ptr noundef readonly %0) local_unnamed_addr #4 {
  %.not = icmp eq ptr %0, null
  br i1 %.not, label %6, label %2

2:                                                ; preds = %1
  %3 = load i8, ptr %0, align 1, !tbaa !13
  %.not3 = icmp eq i8 %3, 0
  br i1 %.not3, label %6, label %4

4:                                                ; preds = %2
  %5 = tail call i32 @unsetenv(ptr noundef nonnull %0) #20
  br label %6

6:                                                ; preds = %1, %2, %4
  ret void
}